; ModuleID = '33/1563.c'
source_filename = "33/1563.c"
target datalayout = "e-m:e-p270:32:32-p271:32:32-p272:64:64-i64:64-f80:128-n8:16:32:64-S128"
target triple = "x86_64-pc-linux-gnu"

@.str = private unnamed_addr constant [3 x i8] c"%d\00", align 1
@.str.1 = private unnamed_addr constant [3 x i8] c"%s\00", align 1
@.str.2 = private unnamed_addr constant [4 x i8] c"%s\0A\00", align 1

; Function Attrs: noinline nounwind uwtable
define dso_local i32 @main() #0 {
  %1 = alloca i32, align 4
  %2 = alloca i32, align 4
  %3 = alloca i8*, align 8
  %4 = alloca i64, align 8
  %5 = alloca i32, align 4
  %6 = alloca i32, align 4
  %7 = alloca i32, align 4
  %8 = alloca i32, align 4
  store i32 0, i32* %1, align 4
  %9 = call i32 (i8*, ...) @__isoc99_scanf(i8* getelementptr inbounds ([3 x i8], [3 x i8]* @.str, i64 0, i64 0), i32* %2)
  %10 = load i32, i32* %2, align 4
  %11 = zext i32 %10 to i64
  %12 = call i8* @llvm.stacksave()
  store i8* %12, i8** %3, align 8
  %13 = alloca [257 x i8], i64 %11, align 16
  store i64 %11, i64* %4, align 8
  store i32 0, i32* %5, align 4
  br label %14

14:                                               ; preds = %24, %0
  %15 = load i32, i32* %5, align 4
  %16 = load i32, i32* %2, align 4
  %17 = icmp slt i32 %15, %16
  br i1 %17, label %18, label %27

18:                                               ; preds = %14
  %19 = load i32, i32* %5, align 4
  %20 = sext i32 %19 to i64
  %21 = getelementptr inbounds [257 x i8], [257 x i8]* %13, i64 %20
  %22 = getelementptr inbounds [257 x i8], [257 x i8]* %21, i64 0, i64 0
  %23 = call i32 (i8*, ...) @__isoc99_scanf(i8* getelementptr inbounds ([3 x i8], [3 x i8]* @.str.1, i64 0, i64 0), i8* %22)
  br label %24

24:                                               ; preds = %18
  %25 = load i32, i32* %5, align 4
  %26 = add nsw i32 %25, 1
  store i32 %26, i32* %5, align 4
  br label %14

27:                                               ; preds = %14
  store i32 0, i32* %6, align 4
  br label %28

28:                                               ; preds = %113, %27
  %29 = load i32, i32* %6, align 4
  %30 = load i32, i32* %2, align 4
  %31 = icmp slt i32 %29, %30
  br i1 %31, label %32, label %116

32:                                               ; preds = %28
  store i32 0, i32* %7, align 4
  br label %33

33:                                               ; preds = %109, %32
  %34 = load i32, i32* %7, align 4
  %35 = icmp slt i32 %34, 257
  br i1 %35, label %36, label %112

36:                                               ; preds = %33
  %37 = load i32, i32* %6, align 4
  %38 = sext i32 %37 to i64
  %39 = getelementptr inbounds [257 x i8], [257 x i8]* %13, i64 %38
  %40 = load i32, i32* %7, align 4
  %41 = sext i32 %40 to i64
  %42 = getelementptr inbounds [257 x i8], [257 x i8]* %39, i64 0, i64 %41
  %43 = load i8, i8* %42, align 1
  %44 = sext i8 %43 to i32
  %45 = icmp eq i32 %44, 65
  br i1 %45, label %46, label %53

46:                                               ; preds = %36
  %47 = load i32, i32* %6, align 4
  %48 = sext i32 %47 to i64
  %49 = getelementptr inbounds [257 x i8], [257 x i8]* %13, i64 %48
  %50 = load i32, i32* %7, align 4
  %51 = sext i32 %50 to i64
  %52 = getelementptr inbounds [257 x i8], [257 x i8]* %49, i64 0, i64 %51
  store i8 84, i8* %52, align 1
  br label %108

53:                                               ; preds = %36
  %54 = load i32, i32* %6, align 4
  %55 = sext i32 %54 to i64
  %56 = getelementptr inbounds [257 x i8], [257 x i8]* %13, i64 %55
  %57 = load i32, i32* %7, align 4
  %58 = sext i32 %57 to i64
  %59 = getelementptr inbounds [257 x i8], [257 x i8]* %56, i64 0, i64 %58
  %60 = load i8, i8* %59, align 1
  %61 = sext i8 %60 to i32
  %62 = icmp eq i32 %61, 84
  br i1 %62, label %63, label %70

63:                                               ; preds = %53
  %64 = load i32, i32* %6, align 4
  %65 = sext i32 %64 to i64
  %66 = getelementptr inbounds [257 x i8], [257 x i8]* %13, i64 %65
  %67 = load i32, i32* %7, align 4
  %68 = sext i32 %67 to i64
  %69 = getelementptr inbounds [257 x i8], [257 x i8]* %66, i64 0, i64 %68
  store i8 65, i8* %69, align 1
  br label %107

70:                                               ; preds = %53
  %71 = load i32, i32* %6, align 4
  %72 = sext i32 %71 to i64
  %73 = getelementptr inbounds [257 x i8], [257 x i8]* %13, i64 %72
  %74 = load i32, i32* %7, align 4
  %75 = sext i32 %74 to i64
  %76 = getelementptr inbounds [257 x i8], [257 x i8]* %73, i64 0, i64 %75
  %77 = load i8, i8* %76, align 1
  %78 = sext i8 %77 to i32
  %79 = icmp eq i32 %78, 67
  br i1 %79, label %80, label %87

80:                                               ; preds = %70
  %81 = load i32, i32* %6, align 4
  %82 = sext i32 %81 to i64
  %83 = getelementptr inbounds [257 x i8], [257 x i8]* %13, i64 %82
  %84 = load i32, i32* %7, align 4
  %85 = sext i32 %84 to i64
  %86 = getelementptr inbounds [257 x i8], [257 x i8]* %83, i64 0, i64 %85
  store i8 71, i8* %86, align 1
  br label %106

87:                                               ; preds = %70
  %88 = load i32, i32* %6, align 4
  %89 = sext i32 %88 to i64
  %90 = getelementptr inbounds [257 x i8], [257 x i8]* %13, i64 %89
  %91 = load i32, i32* %7, align 4
  %92 = sext i32 %91 to i64
  %93 = getelementptr inbounds [257 x i8], [257 x i8]* %90, i64 0, i64 %92
  %94 = load i8, i8* %93, align 1
  %95 = sext i8 %94 to i32
  %96 = icmp eq i32 %95, 71
  br i1 %96, label %97, label %104

97:                                               ; preds = %87
  %98 = load i32, i32* %6, align 4
  %99 = sext i32 %98 to i64
  %100 = getelementptr inbounds [257 x i8], [257 x i8]* %13, i64 %99
  %101 = load i32, i32* %7, align 4
  %102 = sext i32 %101 to i64
  %103 = getelementptr inbounds [257 x i8], [257 x i8]* %100, i64 0, i64 %102
  store i8 67, i8* %103, align 1
  br label %105

104:                                              ; preds = %87
  br label %112

105:                                              ; preds = %97
  br label %106

106:                                              ; preds = %105, %80
  br label %107

107:                                              ; preds = %106, %63
  br label %108

108:                                              ; preds = %107, %46
  br label %109

109:                                              ; preds = %108
  %110 = load i32, i32* %7, align 4
  %111 = add nsw i32 %110, 1
  store i32 %111, i32* %7, align 4
  br label %33

112:                                              ; preds = %104, %33
  br label %113

113:                                              ; preds = %112
  %114 = load i32, i32* %6, align 4
  %115 = add nsw i32 %114, 1
  store i32 %115, i32* %6, align 4
  br label %28

116:                                              ; preds = %28
  store i32 0, i32* %8, align 4
  br label %117

117:                                              ; preds = %127, %116
  %118 = load i32, i32* %8, align 4
  %119 = load i32, i32* %2, align 4
  %120 = icmp slt i32 %118, %119
  br i1 %120, label %121, label %130

121:                                              ; preds = %117
  %122 = load i32, i32* %8, align 4
  %123 = sext i32 %122 to i64
  %124 = getelementptr inbounds [257 x i8], [257 x i8]* %13, i64 %123
  %125 = getelementptr inbounds [257 x i8], [257 x i8]* %124, i64 0, i64 0
  %126 = call i32 (i8*, ...) @printf(i8* getelementptr inbounds ([4 x i8], [4 x i8]* @.str.2, i64 0, i64 0), i8* %125)
  br label %127

127:                                              ; preds = %121
  %128 = load i32, i32* %8, align 4
  %129 = add nsw i32 %128, 1
  store i32 %129, i32* %8, align 4
  br label %117

130:                                              ; preds = %117
  store i32 0, i32* %1, align 4
  %131 = load i8*, i8** %3, align 8
  call void @llvm.stackrestore(i8* %131)
  %132 = load i32, i32* %1, align 4
  ret i32 %132
}

declare dso_local i32 @__isoc99_scanf(i8*, ...) #1

; Function Attrs: nounwind
declare i8* @llvm.stacksave() #2

declare dso_local i32 @printf(i8*, ...) #1

; Function Attrs: nounwind
declare void @llvm.stackrestore(i8*) #2


!llvm.module.flags = !{!0}
!llvm.ident = !{!1}

!0 = !{i32 1, !"wchar_size", i32 4}
!1 = !{!"clang version 10.0.0-4ubuntu1 "}
